; Function Attrs: nounwind uwtable
define hidden zeroext i1 @Wayland_GLES_SwapWindow(ptr noundef readonly captures(none) %0, ptr noundef readonly captures(none) %1) local_unnamed_addr #0 {
  %3 = getelementptr inbounds nuw i8, ptr %1, i64 392
  %4 = load ptr, ptr %3, align 8
  %5 = getelementptr inbounds nuw i8, ptr %0, i64 1672
  %6 = load ptr, ptr %5, align 8
  %7 = getelementptr inbounds nuw i8, ptr %6, i64 32
  %8 = load i32, ptr %7, align 8
  %9 = getelementptr inbounds nuw i8, ptr %4, i64 92
  %10 = load i32, ptr %9, align 4
  switch i32 %10, label %101 [
    i32 4, label %11
    i32 2, label %11
  ]

11:                                               ; preds = %2, %2
  %12 = getelementptr inbounds nuw i8, ptr %4, i64 405
  %13 = load i8, ptr %12, align 1, !range !3, !noundef !4
  %14 = trunc nuw i8 %13 to i1
  br i1 %14, label %15, label %36

15:                                               ; preds = %11
  %16 = getelementptr inbounds nuw i8, ptr %6, i64 152
  %17 = load ptr, ptr %16, align 8
  %18 = getelementptr inbounds nuw i8, ptr %6, i64 16
  %19 = load ptr, ptr %18, align 8
  %20 = getelementptr inbounds nuw i8, ptr %4, i64 112
  %21 = load ptr, ptr %20, align 8
  %22 = tail call i32 %17(ptr noundef %19, ptr noundef %21) #4
  %.not43 = icmp eq i32 %22, 0
  br i1 %.not43, label %23, label %29

23:                                               ; preds = %15
  %24 = load ptr, ptr %5, align 8
  %25 = getelementptr inbounds nuw i8, ptr %24, i64 208
  %26 = load ptr, ptr %25, align 8
  %27 = tail call i32 %26() #4
  %28 = tail call zeroext i1 @SDL_EGL_SetErrorEx(ptr noundef nonnull @.str.1, ptr noundef nonnull @.str.2, i32 noundef %27) #4
  br label %101

29:                                               ; preds = %15
  %30 = load ptr, ptr @WAYLAND_wl_display_flush, align 8
  %31 = getelementptr inbounds nuw i8, ptr %4, i64 8
  %32 = load ptr, ptr %31, align 8
  %33 = getelementptr inbounds nuw i8, ptr %32, i64 8
  %34 = load ptr, ptr %33, align 8
  %35 = tail call i32 %30(ptr noundef %34) #4
  br label %36

36:                                               ; preds = %29, %11
  %.not44 = icmp eq i32 %8, 0
  br i1 %.not44, label %76, label %37

37:                                               ; preds = %36
  %38 = load i32, ptr %9, align 4
  %39 = icmp eq i32 %38, 4
  br i1 %39, label %40, label %76

40:                                               ; preds = %37
  %41 = getelementptr inbounds nuw i8, ptr %0, i64 1656
  %42 = load ptr, ptr %41, align 8
  %43 = getelementptr inbounds nuw i8, ptr %42, i64 8
  %44 = load ptr, ptr %43, align 8
  %45 = tail call i64 @SDL_GetTicksNS_REAL() #4
  %46 = add i64 %45, 50000000
  %47 = getelementptr inbounds nuw i8, ptr %4, i64 216
  %48 = tail call i32 @SDL_GetAtomicInt_REAL(ptr noundef nonnull %47) #4
  %49 = icmp eq i32 %48, 0
  br i1 %49, label %.lr.ph, label %.thread

.lr.ph:                                           ; preds = %40
  %50 = getelementptr inbounds nuw i8, ptr %4, i64 32
  br label %51

51:                                               ; preds = %.lr.ph, %68
  %52 = load ptr, ptr @WAYLAND_wl_display_flush, align 8
  %53 = tail call i32 %52(ptr noundef %44) #4
  %54 = load ptr, ptr @WAYLAND_wl_display_prepare_read_queue, align 8
  %55 = load ptr, ptr %50, align 8
  %56 = tail call i32 %54(ptr noundef %44, ptr noundef %55) #4
  %.not45 = icmp eq i32 %56, 0
  br i1 %.not45, label %57, label %68, !llvm.loop !5

57:                                               ; preds = %51
  %58 = tail call i64 @SDL_GetTicksNS_REAL() #4
  %.not46 = icmp ult i64 %58, %46
  br i1 %.not46, label %59, label %.thread.sink.split

59:                                               ; preds = %57
  %60 = load ptr, ptr @WAYLAND_wl_display_get_fd, align 8
  %61 = tail call i32 %60(ptr noundef %44) #4
  %62 = sub nuw i64 %46, %58
  %63 = tail call i32 @SDL_IOReady(i32 noundef %61, i32 noundef 1, i64 noundef %62) #4
  %64 = icmp slt i32 %63, 1
  br i1 %64, label %.thread.sink.split, label %65

65:                                               ; preds = %59
  %66 = load ptr, ptr @WAYLAND_wl_display_read_events, align 8
  %67 = tail call i32 %66(ptr noundef %44) #4
  br label %68

68:                                               ; preds = %51, %65
  %69 = load ptr, ptr @WAYLAND_wl_display_dispatch_queue_pending, align 8
  %70 = load ptr, ptr %50, align 8
  %71 = tail call i32 %69(ptr noundef %44, ptr noundef %70) #4
  %72 = tail call i32 @SDL_GetAtomicInt_REAL(ptr noundef nonnull %47) #4
  %73 = icmp eq i32 %72, 0
  br i1 %73, label %51, label %.thread

.thread.sink.split:                               ; preds = %59, %57
  %74 = load ptr, ptr @WAYLAND_wl_display_cancel_read, align 8
  tail call void %74(ptr noundef %44) #4
  br label %.thread

.thread:                                          ; preds = %68, %.thread.sink.split, %40
  %75 = tail call i32 @SDL_SetAtomicInt_REAL(ptr noundef nonnull %47, i32 noundef 0) #4
  br label %76

76:                                               ; preds = %.thread, %37, %36
  %77 = load i8, ptr %12, align 1, !range !3, !noundef !4
  %78 = trunc nuw i8 %77 to i1
  br i1 %78, label %101, label %79

79:                                               ; preds = %76
  %80 = load ptr, ptr %5, align 8
  %81 = getelementptr inbounds nuw i8, ptr %80, i64 152
  %82 = load ptr, ptr %81, align 8
  %83 = getelementptr inbounds nuw i8, ptr %80, i64 16
  %84 = load ptr, ptr %83, align 8
  %85 = getelementptr inbounds nuw i8, ptr %4, i64 112
  %86 = load ptr, ptr %85, align 8
  %87 = tail call i32 %82(ptr noundef %84, ptr noundef %86) #4
  %.not47 = icmp eq i32 %87, 0
  br i1 %.not47, label %88, label %94

88:                                               ; preds = %79
  %89 = load ptr, ptr %5, align 8
  %90 = getelementptr inbounds nuw i8, ptr %89, i64 208
  %91 = load ptr, ptr %90, align 8
  %92 = tail call i32 %91() #4
  %93 = tail call zeroext i1 @SDL_EGL_SetErrorEx(ptr noundef nonnull @.str.1, ptr noundef nonnull @.str.2, i32 noundef %92) #4
  br label %101

94:                                               ; preds = %79
  %95 = load ptr, ptr @WAYLAND_wl_display_flush, align 8
  %96 = getelementptr inbounds nuw i8, ptr %4, i64 8
  %97 = load ptr, ptr %96, align 8
  %98 = getelementptr inbounds nuw i8, ptr %97, i64 8
  %99 = load ptr, ptr %98, align 8
  %100 = tail call i32 %95(ptr noundef %99) #4
  br label %101

101:                                              ; preds = %76, %94, %2, %88, %23
  %.0 = phi i1 [ %93, %88 ], [ %28, %23 ], [ true, %2 ], [ true, %94 ], [ true, %76 ]
  ret i1 %.0
}